
main.o:     file format elf64-x86-64


Disassembly of section .text:

0000000000000000 <main>:
   0:	55                   	push   %rbp
   1:	48 89 e5             	mov    %rsp,%rbp
   4:	48 83 ec 10          	sub    $0x10,%rsp
   8:	be 0a 00 00 00       	mov    $0xa,%esi
   d:	bf 00 00 00 00       	mov    $0x0,%edi
  12:	e8 00 00 00 00       	callq  17 <main+0x17>
  17:	b8 00 00 00 00       	mov    $0x0,%eax
  1c:	ba 02 00 00 00       	mov    $0x2,%edx
  21:	be 2b 00 00 00       	mov    $0x2b,%esi
  26:	48 89 c7             	mov    %rax,%rdi
  29:	e8 00 00 00 00       	callq  2e <main+0x2e>
  2e:	ba 61 00 00 00       	mov    $0x61,%edx
  33:	be 00 00 00 00       	mov    $0x0,%esi
  38:	bf 00 00 00 00       	mov    $0x0,%edi
  3d:	e8 00 00 00 00       	callq  42 <main+0x42>
  42:	be 09 00 00 00       	mov    $0x9,%esi
  47:	bf 00 00 00 00       	mov    $0x0,%edi
  4c:	e8 00 00 00 00       	callq  51 <main+0x51>
  51:	88 45 fb             	mov    %al,-0x5(%rbp)
  54:	0f b6 45 fb          	movzbl -0x5(%rbp),%eax
  58:	83 c0 27             	add    $0x27,%eax
  5b:	0f be c0             	movsbl %al,%eax
  5e:	89 c2                	mov    %eax,%edx
  60:	be 09 00 00 00       	mov    $0x9,%esi
  65:	bf 00 00 00 00       	mov    $0x0,%edi
  6a:	e8 00 00 00 00       	callq  6f <main+0x6f>
  6f:	ba 37 00 00 00       	mov    $0x37,%edx
  74:	be 03 00 00 00       	mov    $0x3,%esi
  79:	bf 00 00 00 00       	mov    $0x0,%edi
  7e:	e8 00 00 00 00       	callq  83 <main+0x83>
  83:	ba 58 00 00 00       	mov    $0x58,%edx
  88:	be 01 00 00 00       	mov    $0x1,%esi
  8d:	bf 00 00 00 00       	mov    $0x0,%edi
  92:	e8 00 00 00 00       	callq  97 <main+0x97>
  97:	ba 32 00 00 00       	mov    $0x32,%edx
  9c:	be 04 00 00 00       	mov    $0x4,%esi
  a1:	bf 00 00 00 00       	mov    $0x0,%edi
  a6:	e8 00 00 00 00       	callq  ab <main+0xab>
  ab:	be 01 00 00 00       	mov    $0x1,%esi
  b0:	bf 00 00 00 00       	mov    $0x0,%edi
  b5:	e8 00 00 00 00       	callq  ba <main+0xba>
  ba:	88 45 fb             	mov    %al,-0x5(%rbp)
  bd:	ba 79 00 00 00       	mov    $0x79,%edx
  c2:	be 02 00 00 00       	mov    $0x2,%esi
  c7:	bf 00 00 00 00       	mov    $0x0,%edi
  cc:	e8 00 00 00 00       	callq  d1 <main+0xd1>
  d1:	0f b6 45 fb          	movzbl -0x5(%rbp),%eax
  d5:	83 e8 0c             	sub    $0xc,%eax
  d8:	0f be c0             	movsbl %al,%eax
  db:	89 c2                	mov    %eax,%edx
  dd:	be 07 00 00 00       	mov    $0x7,%esi
  e2:	bf 00 00 00 00       	mov    $0x0,%edi
  e7:	e8 00 00 00 00       	callq  ec <main+0xec>
  ec:	ba 5f 00 00 00       	mov    $0x5f,%edx
  f1:	be 05 00 00 00       	mov    $0x5,%esi
  f6:	bf 00 00 00 00       	mov    $0x0,%edi
  fb:	e8 00 00 00 00       	callq  100 <main+0x100>
 100:	c7 45 fc 00 00 00 00 	movl   $0x0,-0x4(%rbp)
 107:	eb 04                	jmp    10d <main+0x10d>
 109:	83 45 fc 01          	addl   $0x1,-0x4(%rbp)
 10d:	83 7d fc 09          	cmpl   $0x9,-0x4(%rbp)
 111:	76 f6                	jbe    109 <main+0x109>
 113:	b8 00 00 00 00       	mov    $0x0,%eax
 118:	c9                   	leaveq 
 119:	c3                   	retq   
